target datalayout = "e-m:e-p270:32:32-p271:32:32-p272:64:64-i64:64-i128:128-f80:128-n8:16:32:64-S128"
target triple = "x86_64-pc-linux-gnu"

%struct._MRIStepInnerStepper = type { ptr, ptr, ptr, ptr, i32, i32, i32, double, double, ptr, ptr, i64, i64, i64, i64 }
%struct.SUNStepper_ = type { ptr, ptr, ptr, i32 }

; Function Attrs: nounwind uwtable
define i32 @mriStepInnerStepper_FullRhsSUNStepper(ptr noundef %0, double noundef %1, ptr noundef %2, ptr noundef %3, i32 noundef %4) #0 {
  %6 = alloca i32, align 4
  %7 = alloca ptr, align 8
  %8 = alloca double, align 8
  %9 = alloca ptr, align 8
  %10 = alloca ptr, align 8
  %11 = alloca i32, align 4
  %12 = alloca ptr, align 8
  %13 = alloca i32, align 4
  %14 = alloca i32, align 4
  %15 = alloca i32, align 4
  store ptr %0, ptr %7, align 8, !tbaa !11
  store double %1, ptr %8, align 8, !tbaa !7
  store ptr %2, ptr %9, align 8, !tbaa !9
  store ptr %3, ptr %10, align 8, !tbaa !9
  store i32 %4, ptr %11, align 4, !tbaa !15
  call void @llvm.lifetime.start.p0(i64 8, ptr %12) #8
  %16 = load ptr, ptr %7, align 8, !tbaa !11
  %17 = getelementptr inbounds nuw %struct._MRIStepInnerStepper, ptr %16, i32 0, i32 0
  %18 = load ptr, ptr %17, align 8, !tbaa !263
  store ptr %18, ptr %12, align 8, !tbaa !258
  call void @llvm.lifetime.start.p0(i64 4, ptr %13) #8
  %19 = load i32, ptr %11, align 4, !tbaa !15
  switch i32 %19, label %22 [
    i32 0, label %20
    i32 1, label %21
  ]

20:                                               ; preds = %5
  store i32 0, ptr %13, align 4, !tbaa !15
  br label %23

21:                                               ; preds = %5
  store i32 1, ptr %13, align 4, !tbaa !15
  br label %23

22:                                               ; preds = %5
  store i32 2, ptr %13, align 4, !tbaa !15
  br label %23

23:                                               ; preds = %22, %21, %20
  call void @llvm.lifetime.start.p0(i64 4, ptr %14) #8
  %24 = load ptr, ptr %12, align 8, !tbaa !258
  %25 = load double, ptr %8, align 8, !tbaa !7
  %26 = load ptr, ptr %9, align 8, !tbaa !9
  %27 = load ptr, ptr %10, align 8, !tbaa !9
  %28 = load i32, ptr %13, align 4, !tbaa !15
  %29 = call i32 @SUNStepper_FullRhs(ptr noundef %24, double noundef %25, ptr noundef %26, ptr noundef %27, i32 noundef %28)
  store i32 %29, ptr %14, align 4, !tbaa !15
  %30 = load ptr, ptr %12, align 8, !tbaa !258
  %31 = getelementptr inbounds nuw %struct.SUNStepper_, ptr %30, i32 0, i32 3
  %32 = load i32, ptr %31, align 8, !tbaa !264
  %33 = load ptr, ptr %7, align 8, !tbaa !11
  %34 = getelementptr inbounds nuw %struct._MRIStepInnerStepper, ptr %33, i32 0, i32 6
  store i32 %32, ptr %34, align 8, !tbaa !229
  %35 = load i32, ptr %14, align 4, !tbaa !15
  %36 = icmp ne i32 %35, 0
  br i1 %36, label %37, label %38

37:                                               ; preds = %23
  store i32 -51, ptr %6, align 4
  store i32 1, ptr %15, align 4
  br label %39

38:                                               ; preds = %23
  store i32 0, ptr %6, align 4
  store i32 1, ptr %15, align 4
  br label %39

39:                                               ; preds = %38, %37
  call void @llvm.lifetime.end.p0(i64 4, ptr %14) #8
  call void @llvm.lifetime.end.p0(i64 4, ptr %13) #8
  call void @llvm.lifetime.end.p0(i64 8, ptr %12) #8
  %40 = load i32, ptr %6, align 4
  ret i32 %40
}