; Function Attrs: nounwind uwtable
define range(i32 -51, 1) i32 @mriStepInnerStepper_FullRhsSUNStepper(ptr noundef captures(none) initializes((40, 44)) %0, double noundef %1, ptr noundef %2, ptr noundef %3, i32 noundef %4) #0 {
  %6 = load ptr, ptr %0, align 8, !tbaa !245
  %switch.selectcmp = icmp eq i32 %4, 1
  %switch.select = select i1 %switch.selectcmp, i32 1, i32 2
  %switch.selectcmp11 = icmp eq i32 %4, 0
  %switch.select12 = select i1 %switch.selectcmp11, i32 0, i32 %switch.select
  %7 = tail call i32 @SUNStepper_FullRhs(ptr noundef %6, double noundef %1, ptr noundef %2, ptr noundef %3, i32 noundef %switch.select12) #14
  %8 = getelementptr inbounds nuw i8, ptr %6, i64 24
  %9 = load i32, ptr %8, align 8, !tbaa !246
  %10 = getelementptr inbounds nuw i8, ptr %0, i64 40
  store i32 %9, ptr %10, align 8, !tbaa !166
  %.not = icmp eq i32 %7, 0
  %.0 = select i1 %.not, i32 0, i32 -51
  ret i32 %.0
}